target datalayout = "e-m:e-p270:32:32-p271:32:32-p272:64:64-i64:64-i128:128-f80:128-n8:16:32:64-S128"
target triple = "x86_64-pc-linux-gnu"

%"class.std::tuple" = type { %"struct.std::_Tuple_impl.base", [4 x i8] }
%"struct.std::_Tuple_impl.base" = type <{ %"struct.std::_Tuple_impl.0", %"struct.std::_Head_base.3" }>
%"struct.std::_Tuple_impl.0" = type { %"struct.std::_Tuple_impl.1", %"struct.std::_Head_base.2" }
%"struct.std::_Tuple_impl.1" = type { %"struct.std::_Head_base" }
%"struct.std::_Head_base" = type { i32 }
%"struct.std::_Head_base.2" = type { ptr }
%"struct.std::_Head_base.3" = type { i32 }
%"class.testing::MatcherDescriberInterface" = type { ptr }
%"class.testing::MatchResultListener" = type { ptr, ptr }
%"class.testing::internal::MatcherBase.46" = type { %"class.testing::MatcherDescriberInterface", ptr, %"union.testing::internal::MatcherBase<const std::tuple<(anonymous namespace)::Function, const void *, absl::base_internal::ObjectKind> &>::Buffer" }
%"union.testing::internal::MatcherBase<const std::tuple<(anonymous namespace)::Function, const void *, absl::base_internal::ObjectKind> &>::Buffer" = type { ptr }
%"struct.testing::internal::SharedPayloadBase" = type { %"struct.std::atomic" }
%"struct.std::atomic" = type { %"struct.std::__atomic_base" }
%"struct.std::__atomic_base" = type { i32 }
%"class.testing::internal::EqMatcher" = type { %"class.testing::internal::ComparisonBase" }
%"class.testing::internal::ComparisonBase" = type { %"class.std::tuple" }
%"struct.testing::internal::SharedPayload" = type { %"struct.testing::internal::SharedPayloadBase", [4 x i8], %"class.testing::internal::EqMatcher" }
%"struct.std::equal_to" = type { i8 }

; Function Attrs: mustprogress nounwind uwtable
define linkonce_odr dso_local noundef nonnull align 4 dereferenceable(4) ptr @_ZNSt10_Head_baseILm2EN4absl13base_internal10ObjectKindELb0EE7_M_headERKS3_(ptr noundef nonnull align 4 dereferenceable(4) %0) #7 comdat align 2 {
  %2 = alloca ptr, align 8
  store ptr %0, ptr %2, align 8, !tbaa !54
  %3 = load ptr, ptr %2, align 8, !tbaa !54
  %4 = getelementptr inbounds nuw %"struct.std::_Head_base", ptr %3, i32 0, i32 0
  ret ptr %4
}

; Function Attrs: mustprogress nounwind uwtable
define linkonce_odr dso_local noundef nonnull align 4 dereferenceable(4) ptr @_ZNSt11_Tuple_implILm2EJN4absl13base_internal10ObjectKindEEE7_M_headERKS3_(ptr noundef nonnull align 4 dereferenceable(4) %0) #7 comdat align 2 {
  %2 = alloca ptr, align 8
  store ptr %0, ptr %2, align 8, !tbaa !48
  %3 = load ptr, ptr %2, align 8, !tbaa !48
  %4 = call noundef nonnull align 4 dereferenceable(4) ptr @_ZNSt10_Head_baseILm2EN4absl13base_internal10ObjectKindELb0EE7_M_headERKS3_(ptr noundef nonnull align 4 dereferenceable(4) %3) #3
  ret ptr %4
}

; Function Attrs: mustprogress nounwind uwtable
define linkonce_odr dso_local noundef nonnull align 8 dereferenceable(8) ptr @_ZNSt10_Head_baseILm1EPKvLb0EE7_M_headERKS2_(ptr noundef nonnull align 8 dereferenceable(8) %0) #7 comdat align 2 {
  %2 = alloca ptr, align 8
  store ptr %0, ptr %2, align 8, !tbaa !50
  %3 = load ptr, ptr %2, align 8, !tbaa !50
  %4 = getelementptr inbounds nuw %"struct.std::_Head_base.2", ptr %3, i32 0, i32 0
  ret ptr %4
}

; Function Attrs: mustprogress nounwind uwtable
define linkonce_odr dso_local noundef nonnull align 4 dereferenceable(4) ptr @_ZSt12__get_helperILm2EN4absl13base_internal10ObjectKindEJEERKT0_RKSt11_Tuple_implIXT_EJS3_DpT1_EE(ptr noundef nonnull align 4 dereferenceable(4) %0) #7 comdat {
  %2 = alloca ptr, align 8
  store ptr %0, ptr %2, align 8, !tbaa !48
  %3 = load ptr, ptr %2, align 8, !tbaa !48
  %4 = call noundef nonnull align 4 dereferenceable(4) ptr @_ZNSt11_Tuple_implILm2EJN4absl13base_internal10ObjectKindEEE7_M_headERKS3_(ptr noundef nonnull align 4 dereferenceable(4) %3) #3
  ret ptr %4
}

; Function Attrs: mustprogress nounwind uwtable
define linkonce_odr dso_local noundef nonnull align 8 dereferenceable(8) ptr @_ZNSt11_Tuple_implILm1EJPKvN4absl13base_internal10ObjectKindEEE7_M_headERKS5_(ptr noundef nonnull align 8 dereferenceable(16) %0) #7 comdat align 2 {
  %2 = alloca ptr, align 8
  store ptr %0, ptr %2, align 8, !tbaa !42
  %3 = load ptr, ptr %2, align 8, !tbaa !42
  %4 = getelementptr inbounds i8, ptr %3, i64 8
  %5 = call noundef nonnull align 8 dereferenceable(8) ptr @_ZNSt10_Head_baseILm1EPKvLb0EE7_M_headERKS2_(ptr noundef nonnull align 8 dereferenceable(8) %4) #3
  ret ptr %5
}

; Function Attrs: mustprogress nounwind uwtable
define internal noundef nonnull align 4 dereferenceable(4) ptr @_ZNSt10_Head_baseILm0EN12_GLOBAL__N_18FunctionELb0EE7_M_headERKS2_(ptr noundef nonnull align 4 dereferenceable(4) %0) #7 align 2 {
  %2 = alloca ptr, align 8
  store ptr %0, ptr %2, align 8, !tbaa !44
  %3 = load ptr, ptr %2, align 8, !tbaa !44
  %4 = getelementptr inbounds nuw %"struct.std::_Head_base.3", ptr %3, i32 0, i32 0
  ret ptr %4
}

; Function Attrs: mustprogress nounwind uwtable
define internal noundef zeroext i1 @_ZNSt15__tuple_compareISt5tupleIJN12_GLOBAL__N_18FunctionEPKvN4absl13base_internal10ObjectKindEEES8_Lm3ELm3EE4__eqERKS8_SB_(ptr noundef nonnull align 8 dereferenceable(20) %0, ptr noundef nonnull align 8 dereferenceable(20) %1) #7 align 2 {
  %3 = alloca ptr, align 8
  %4 = alloca ptr, align 8
  store ptr %0, ptr %3, align 8, !tbaa !13
  store ptr %1, ptr %4, align 8, !tbaa !13
  ret i1 true
}

; Function Attrs: mustprogress nounwind uwtable
define internal noundef nonnull align 4 dereferenceable(4) ptr @_ZSt3getILm2EJN12_GLOBAL__N_18FunctionEPKvN4absl13base_internal10ObjectKindEEERKNSt13tuple_elementIXT_ESt5tupleIJDpT0_EEE4typeERKSB_(ptr noundef nonnull align 8 dereferenceable(20) %0) #7 {
  %2 = alloca ptr, align 8
  store ptr %0, ptr %2, align 8, !tbaa !13
  %3 = load ptr, ptr %2, align 8, !tbaa !13
  %4 = call noundef nonnull align 4 dereferenceable(4) ptr @_ZSt12__get_helperILm2EN4absl13base_internal10ObjectKindEJEERKT0_RKSt11_Tuple_implIXT_EJS3_DpT1_EE(ptr noundef nonnull align 4 dereferenceable(4) %3) #3
  ret ptr %4
}

; Function Attrs: mustprogress nounwind uwtable
define linkonce_odr dso_local noundef nonnull align 8 dereferenceable(8) ptr @_ZSt12__get_helperILm1EPKvJN4absl13base_internal10ObjectKindEEERKT0_RKSt11_Tuple_implIXT_EJS5_DpT1_EE(ptr noundef nonnull align 8 dereferenceable(16) %0) #7 comdat {
  %2 = alloca ptr, align 8
  store ptr %0, ptr %2, align 8, !tbaa !42
  %3 = load ptr, ptr %2, align 8, !tbaa !42
  %4 = call noundef nonnull align 8 dereferenceable(8) ptr @_ZNSt11_Tuple_implILm1EJPKvN4absl13base_internal10ObjectKindEEE7_M_headERKS5_(ptr noundef nonnull align 8 dereferenceable(16) %3) #3
  ret ptr %4
}

; Function Attrs: mustprogress nounwind uwtable
define internal noundef nonnull align 4 dereferenceable(4) ptr @_ZNSt11_Tuple_implILm0EJN12_GLOBAL__N_18FunctionEPKvN4absl13base_internal10ObjectKindEEE7_M_headERKS7_(ptr noundef nonnull align 8 dereferenceable(20) %0) #7 align 2 {
  %2 = alloca ptr, align 8
  store ptr %0, ptr %2, align 8, !tbaa !40
  %3 = load ptr, ptr %2, align 8, !tbaa !40
  %4 = getelementptr inbounds i8, ptr %3, i64 16
  %5 = call noundef nonnull align 4 dereferenceable(4) ptr @_ZNSt10_Head_baseILm0EN12_GLOBAL__N_18FunctionELb0EE7_M_headERKS2_(ptr noundef nonnull align 4 dereferenceable(4) %4) #3
  ret ptr %5
}

; Function Attrs: mustprogress uwtable
define internal noundef zeroext i1 @_ZNSt15__tuple_compareISt5tupleIJN12_GLOBAL__N_18FunctionEPKvN4absl13base_internal10ObjectKindEEES8_Lm2ELm3EE4__eqERKS8_SB_(ptr noundef nonnull align 8 dereferenceable(20) %0, ptr noundef nonnull align 8 dereferenceable(20) %1) #4 align 2 {
  %3 = alloca ptr, align 8
  %4 = alloca ptr, align 8
  store ptr %0, ptr %3, align 8, !tbaa !13
  store ptr %1, ptr %4, align 8, !tbaa !13
  %5 = load ptr, ptr %3, align 8, !tbaa !13
  %6 = call noundef nonnull align 4 dereferenceable(4) ptr @_ZSt3getILm2EJN12_GLOBAL__N_18FunctionEPKvN4absl13base_internal10ObjectKindEEERKNSt13tuple_elementIXT_ESt5tupleIJDpT0_EEE4typeERKSB_(ptr noundef nonnull align 8 dereferenceable(20) %5) #3
  %7 = load i32, ptr %6, align 4, !tbaa !8
  %8 = load ptr, ptr %4, align 8, !tbaa !13
  %9 = call noundef nonnull align 4 dereferenceable(4) ptr @_ZSt3getILm2EJN12_GLOBAL__N_18FunctionEPKvN4absl13base_internal10ObjectKindEEERKNSt13tuple_elementIXT_ESt5tupleIJDpT0_EEE4typeERKSB_(ptr noundef nonnull align 8 dereferenceable(20) %8) #3
  %10 = load i32, ptr %9, align 4, !tbaa !8
  %11 = icmp eq i32 %7, %10
  br i1 %11, label %12, label %16

12:                                               ; preds = %2
  %13 = load ptr, ptr %3, align 8, !tbaa !13
  %14 = load ptr, ptr %4, align 8, !tbaa !13
  %15 = call noundef zeroext i1 @_ZNSt15__tuple_compareISt5tupleIJN12_GLOBAL__N_18FunctionEPKvN4absl13base_internal10ObjectKindEEES8_Lm3ELm3EE4__eqERKS8_SB_(ptr noundef nonnull align 8 dereferenceable(20) %13, ptr noundef nonnull align 8 dereferenceable(20) %14)
  br label %16

16:                                               ; preds = %12, %2
  %17 = phi i1 [ false, %2 ], [ %15, %12 ]
  ret i1 %17
}

; Function Attrs: mustprogress nounwind uwtable
define internal noundef nonnull align 8 dereferenceable(8) ptr @_ZSt3getILm1EJN12_GLOBAL__N_18FunctionEPKvN4absl13base_internal10ObjectKindEEERKNSt13tuple_elementIXT_ESt5tupleIJDpT0_EEE4typeERKSB_(ptr noundef nonnull align 8 dereferenceable(20) %0) #7 {
  %2 = alloca ptr, align 8
  store ptr %0, ptr %2, align 8, !tbaa !13
  %3 = load ptr, ptr %2, align 8, !tbaa !13
  %4 = call noundef nonnull align 8 dereferenceable(8) ptr @_ZSt12__get_helperILm1EPKvJN4absl13base_internal10ObjectKindEEERKT0_RKSt11_Tuple_implIXT_EJS5_DpT1_EE(ptr noundef nonnull align 8 dereferenceable(16) %3) #3
  ret ptr %4
}

; Function Attrs: mustprogress nounwind uwtable
define internal noundef nonnull align 4 dereferenceable(4) ptr @_ZSt12__get_helperILm0EN12_GLOBAL__N_18FunctionEJPKvN4absl13base_internal10ObjectKindEEERKT0_RKSt11_Tuple_implIXT_EJS7_DpT1_EE(ptr noundef nonnull align 8 dereferenceable(20) %0) #7 {
  %2 = alloca ptr, align 8
  store ptr %0, ptr %2, align 8, !tbaa !40
  %3 = load ptr, ptr %2, align 8, !tbaa !40
  %4 = call noundef nonnull align 4 dereferenceable(4) ptr @_ZNSt11_Tuple_implILm0EJN12_GLOBAL__N_18FunctionEPKvN4absl13base_internal10ObjectKindEEE7_M_headERKS7_(ptr noundef nonnull align 8 dereferenceable(20) %3) #3
  ret ptr %4
}

; Function Attrs: mustprogress uwtable
define internal noundef zeroext i1 @_ZNSt15__tuple_compareISt5tupleIJN12_GLOBAL__N_18FunctionEPKvN4absl13base_internal10ObjectKindEEES8_Lm1ELm3EE4__eqERKS8_SB_(ptr noundef nonnull align 8 dereferenceable(20) %0, ptr noundef nonnull align 8 dereferenceable(20) %1) #4 align 2 {
  %3 = alloca ptr, align 8
  %4 = alloca ptr, align 8
  store ptr %0, ptr %3, align 8, !tbaa !13
  store ptr %1, ptr %4, align 8, !tbaa !13
  %5 = load ptr, ptr %3, align 8, !tbaa !13
  %6 = call noundef nonnull align 8 dereferenceable(8) ptr @_ZSt3getILm1EJN12_GLOBAL__N_18FunctionEPKvN4absl13base_internal10ObjectKindEEERKNSt13tuple_elementIXT_ESt5tupleIJDpT0_EEE4typeERKSB_(ptr noundef nonnull align 8 dereferenceable(20) %5) #3
  %7 = load ptr, ptr %6, align 8, !tbaa !4
  %8 = load ptr, ptr %4, align 8, !tbaa !13
  %9 = call noundef nonnull align 8 dereferenceable(8) ptr @_ZSt3getILm1EJN12_GLOBAL__N_18FunctionEPKvN4absl13base_internal10ObjectKindEEERKNSt13tuple_elementIXT_ESt5tupleIJDpT0_EEE4typeERKSB_(ptr noundef nonnull align 8 dereferenceable(20) %8) #3
  %10 = load ptr, ptr %9, align 8, !tbaa !4
  %11 = icmp eq ptr %7, %10
  br i1 %11, label %12, label %16

12:                                               ; preds = %2
  %13 = load ptr, ptr %3, align 8, !tbaa !13
  %14 = load ptr, ptr %4, align 8, !tbaa !13
  %15 = call noundef zeroext i1 @_ZNSt15__tuple_compareISt5tupleIJN12_GLOBAL__N_18FunctionEPKvN4absl13base_internal10ObjectKindEEES8_Lm2ELm3EE4__eqERKS8_SB_(ptr noundef nonnull align 8 dereferenceable(20) %13, ptr noundef nonnull align 8 dereferenceable(20) %14)
  br label %16

16:                                               ; preds = %12, %2
  %17 = phi i1 [ false, %2 ], [ %15, %12 ]
  ret i1 %17
}

; Function Attrs: mustprogress nounwind uwtable
define internal noundef nonnull align 4 dereferenceable(4) ptr @_ZSt3getILm0EJN12_GLOBAL__N_18FunctionEPKvN4absl13base_internal10ObjectKindEEERKNSt13tuple_elementIXT_ESt5tupleIJDpT0_EEE4typeERKSB_(ptr noundef nonnull align 8 dereferenceable(20) %0) #7 {
  %2 = alloca ptr, align 8
  store ptr %0, ptr %2, align 8, !tbaa !13
  %3 = load ptr, ptr %2, align 8, !tbaa !13
  %4 = call noundef nonnull align 4 dereferenceable(4) ptr @_ZSt12__get_helperILm0EN12_GLOBAL__N_18FunctionEJPKvN4absl13base_internal10ObjectKindEEERKT0_RKSt11_Tuple_implIXT_EJS7_DpT1_EE(ptr noundef nonnull align 8 dereferenceable(20) %3) #3
  ret ptr %4
}

; Function Attrs: mustprogress uwtable
define internal noundef zeroext i1 @_ZNSt15__tuple_compareISt5tupleIJN12_GLOBAL__N_18FunctionEPKvN4absl13base_internal10ObjectKindEEES8_Lm0ELm3EE4__eqERKS8_SB_(ptr noundef nonnull align 8 dereferenceable(20) %0, ptr noundef nonnull align 8 dereferenceable(20) %1) #4 align 2 {
  %3 = alloca ptr, align 8
  %4 = alloca ptr, align 8
  store ptr %0, ptr %3, align 8, !tbaa !13
  store ptr %1, ptr %4, align 8, !tbaa !13
  %5 = load ptr, ptr %3, align 8, !tbaa !13
  %6 = call noundef nonnull align 4 dereferenceable(4) ptr @_ZSt3getILm0EJN12_GLOBAL__N_18FunctionEPKvN4absl13base_internal10ObjectKindEEERKNSt13tuple_elementIXT_ESt5tupleIJDpT0_EEE4typeERKSB_(ptr noundef nonnull align 8 dereferenceable(20) %5) #3
  %7 = load i32, ptr %6, align 4, !tbaa !12
  %8 = load ptr, ptr %4, align 8, !tbaa !13
  %9 = call noundef nonnull align 4 dereferenceable(4) ptr @_ZSt3getILm0EJN12_GLOBAL__N_18FunctionEPKvN4absl13base_internal10ObjectKindEEERKNSt13tuple_elementIXT_ESt5tupleIJDpT0_EEE4typeERKSB_(ptr noundef nonnull align 8 dereferenceable(20) %8) #3
  %10 = load i32, ptr %9, align 4, !tbaa !12
  %11 = icmp eq i32 %7, %10
  br i1 %11, label %12, label %16

12:                                               ; preds = %2
  %13 = load ptr, ptr %3, align 8, !tbaa !13
  %14 = load ptr, ptr %4, align 8, !tbaa !13
  %15 = call noundef zeroext i1 @_ZNSt15__tuple_compareISt5tupleIJN12_GLOBAL__N_18FunctionEPKvN4absl13base_internal10ObjectKindEEES8_Lm1ELm3EE4__eqERKS8_SB_(ptr noundef nonnull align 8 dereferenceable(20) %13, ptr noundef nonnull align 8 dereferenceable(20) %14)
  br label %16

16:                                               ; preds = %12, %2
  %17 = phi i1 [ false, %2 ], [ %15, %12 ]
  ret i1 %17
}

; Function Attrs: mustprogress uwtable
define internal noundef zeroext i1 @_ZSteqIJN12_GLOBAL__N_18FunctionEPKvN4absl13base_internal10ObjectKindEEJS1_S3_S6_EEbRKSt5tupleIJDpT_EERKS7_IJDpT0_EE(ptr noundef nonnull align 8 dereferenceable(20) %0, ptr noundef nonnull align 8 dereferenceable(20) %1) #4 {
  %3 = alloca ptr, align 8
  %4 = alloca ptr, align 8
  store ptr %0, ptr %3, align 8, !tbaa !13
  store ptr %1, ptr %4, align 8, !tbaa !13
  %5 = load ptr, ptr %3, align 8, !tbaa !13
  %6 = load ptr, ptr %4, align 8, !tbaa !13
  %7 = call noundef zeroext i1 @_ZNSt15__tuple_compareISt5tupleIJN12_GLOBAL__N_18FunctionEPKvN4absl13base_internal10ObjectKindEEES8_Lm0ELm3EE4__eqERKS8_SB_(ptr noundef nonnull align 8 dereferenceable(20) %5, ptr noundef nonnull align 8 dereferenceable(20) %6)
  ret i1 %7
}

; Function Attrs: mustprogress uwtable
define internal noundef zeroext i1 @_ZNKSt8equal_toIvEclIRKSt5tupleIJN12_GLOBAL__N_18FunctionEPKvN4absl13base_internal10ObjectKindEEESC_EEDTeqclsr3stdE7forwardIT_Efp_Eclsr3stdE7forwardIT0_Efp0_EEOSD_OSE_(ptr noundef nonnull align 1 dereferenceable(1) %0, ptr noundef nonnull align 8 dereferenceable(20) %1, ptr noundef nonnull align 8 dereferenceable(20) %2) #4 align 2 {
  %4 = alloca ptr, align 8
  %5 = alloca ptr, align 8
  %6 = alloca ptr, align 8
  store ptr %0, ptr %4, align 8, !tbaa !207
  store ptr %1, ptr %5, align 8, !tbaa !13
  store ptr %2, ptr %6, align 8, !tbaa !13
  %7 = load ptr, ptr %5, align 8, !tbaa !13
  %8 = load ptr, ptr %6, align 8, !tbaa !13
  %9 = call noundef zeroext i1 @_ZSteqIJN12_GLOBAL__N_18FunctionEPKvN4absl13base_internal10ObjectKindEEJS1_S3_S6_EEbRKSt5tupleIJDpT_EERKS7_IJDpT0_EE(ptr noundef nonnull align 8 dereferenceable(20) %7, ptr noundef nonnull align 8 dereferenceable(20) %8)
  ret i1 %9
}

; Function Attrs: mustprogress nounwind uwtable
define internal noundef nonnull align 8 dereferenceable(20) ptr @_ZN7testing8internal14ComparisonBaseINS0_9EqMatcherISt5tupleIJN12_GLOBAL__N_18FunctionEPKvN4absl13base_internal10ObjectKindEEEEESB_St8equal_toIvEE6UnwrapISB_EERKT_SJ_(ptr noundef nonnull align 8 dereferenceable(20) %0) #7 align 2 {
  %2 = alloca ptr, align 8
  store ptr %0, ptr %2, align 8, !tbaa !13
  %3 = load ptr, ptr %2, align 8, !tbaa !13
  ret ptr %3
}

; Function Attrs: mustprogress uwtable
define internal noundef zeroext i1 @_ZNK7testing8internal14ComparisonBaseINS0_9EqMatcherISt5tupleIJN12_GLOBAL__N_18FunctionEPKvN4absl13base_internal10ObjectKindEEEEESB_St8equal_toIvEE15MatchAndExplainISB_EEbRKT_PSo(ptr noundef nonnull align 8 dereferenceable(24) %0, ptr noundef nonnull align 8 dereferenceable(20) %1, ptr noundef %2) #4 align 2 {
  %4 = alloca ptr, align 8
  %5 = alloca ptr, align 8
  %6 = alloca ptr, align 8
  %7 = alloca %"struct.std::equal_to", align 1
  store ptr %0, ptr %4, align 8, !tbaa !203
  store ptr %1, ptr %5, align 8, !tbaa !13
  store ptr %2, ptr %6, align 8, !tbaa !129
  %8 = load ptr, ptr %4, align 8
  call void @llvm.lifetime.start.p0(i64 1, ptr %7) #3
  %9 = load ptr, ptr %5, align 8, !tbaa !13
  %10 = getelementptr inbounds nuw %"class.testing::internal::ComparisonBase", ptr %8, i32 0, i32 0
  %11 = call noundef nonnull align 8 dereferenceable(20) ptr @_ZN7testing8internal14ComparisonBaseINS0_9EqMatcherISt5tupleIJN12_GLOBAL__N_18FunctionEPKvN4absl13base_internal10ObjectKindEEEEESB_St8equal_toIvEE6UnwrapISB_EERKT_SJ_(ptr noundef nonnull align 8 dereferenceable(20) %10)
  %12 = call noundef zeroext i1 @_ZNKSt8equal_toIvEclIRKSt5tupleIJN12_GLOBAL__N_18FunctionEPKvN4absl13base_internal10ObjectKindEEESC_EEDTeqclsr3stdE7forwardIT_Efp_Eclsr3stdE7forwardIT0_Efp0_EEOSD_OSE_(ptr noundef nonnull align 1 dereferenceable(1) %7, ptr noundef nonnull align 8 dereferenceable(20) %9, ptr noundef nonnull align 8 dereferenceable(20) %11)
  call void @llvm.lifetime.end.p0(i64 1, ptr %7) #3
  ret i1 %12
}

; Function Attrs: mustprogress nounwind uwtable
define linkonce_odr dso_local noundef ptr @_ZN7testing19MatchResultListener6streamEv(ptr noundef nonnull align 8 dereferenceable(16) %0) #7 comdat align 2 {
  %2 = alloca ptr, align 8
  store ptr %0, ptr %2, align 8, !tbaa !141
  %3 = load ptr, ptr %2, align 8
  %4 = getelementptr inbounds nuw %"class.testing::MatchResultListener", ptr %3, i32 0, i32 1
  %5 = load ptr, ptr %4, align 8, !tbaa !205
  ret ptr %5
}

; Function Attrs: mustprogress nounwind uwtable
define internal noundef nonnull align 8 dereferenceable(24) ptr @_ZN7testing8internal11MatcherBaseIRKSt5tupleIJN12_GLOBAL__N_18FunctionEPKvN4absl13base_internal10ObjectKindEEEE11ValuePolicyINS0_9EqMatcherISA_EELb0EE3GetERKSD_(ptr noundef nonnull align 8 dereferenceable(24) %0) #7 align 2 {
  %2 = alloca ptr, align 8
  store ptr %0, ptr %2, align 8, !tbaa !171
  %3 = load ptr, ptr %2, align 8, !tbaa !171
  %4 = getelementptr inbounds nuw %"class.testing::internal::MatcherBase.46", ptr %3, i32 0, i32 2
  %5 = load ptr, ptr %4, align 8, !tbaa !12
  %6 = getelementptr inbounds nuw %"struct.testing::internal::SharedPayload", ptr %5, i32 0, i32 2
  ret ptr %6
}

; Function Attrs: mustprogress uwtable
define internal noundef zeroext i1 @_ZN7testing8internal11MatcherBaseIRKSt5tupleIJN12_GLOBAL__N_18FunctionEPKvN4absl13base_internal10ObjectKindEEEE19MatchAndExplainImplINSD_11ValuePolicyINS0_9EqMatcherISA_EELb0EEEEEDTcldtclsrT_3Getfp_E15MatchAndExplainfp0_clptfp1_6streamEEERKSD_SC_PNS_19MatchResultListenerE(ptr noundef nonnull align 8 dereferenceable(24) %0, ptr noundef nonnull align 8 dereferenceable(20) %1, ptr noundef %2) #4 align 2 {
  %4 = alloca ptr, align 8
  %5 = alloca ptr, align 8
  %6 = alloca ptr, align 8
  store ptr %0, ptr %4, align 8, !tbaa !171
  store ptr %1, ptr %5, align 8, !tbaa !13
  store ptr %2, ptr %6, align 8, !tbaa !141
  %7 = load ptr, ptr %4, align 8, !tbaa !171
  %8 = call noundef nonnull align 8 dereferenceable(24) ptr @_ZN7testing8internal11MatcherBaseIRKSt5tupleIJN12_GLOBAL__N_18FunctionEPKvN4absl13base_internal10ObjectKindEEEE11ValuePolicyINS0_9EqMatcherISA_EELb0EE3GetERKSD_(ptr noundef nonnull align 8 dereferenceable(24) %7)
  %9 = load ptr, ptr %5, align 8, !tbaa !13
  %10 = load ptr, ptr %6, align 8, !tbaa !141
  %11 = call noundef ptr @_ZN7testing19MatchResultListener6streamEv(ptr noundef nonnull align 8 dereferenceable(16) %10)
  %12 = call noundef zeroext i1 @_ZNK7testing8internal14ComparisonBaseINS0_9EqMatcherISt5tupleIJN12_GLOBAL__N_18FunctionEPKvN4absl13base_internal10ObjectKindEEEEESB_St8equal_toIvEE15MatchAndExplainISB_EEbRKT_PSo(ptr noundef nonnull align 8 dereferenceable(24) %8, ptr noundef nonnull align 8 dereferenceable(20) %9, ptr noundef %11)
  ret i1 %12
}