; Function Attrs: mustprogress nofree norecurse nosync nounwind willreturn memory(read, inaccessiblemem: none) uwtable
define internal noundef zeroext i1 @_ZN7testing8internal11MatcherBaseIRKSt5tupleIJN12_GLOBAL__N_18FunctionEPKvN4absl13base_internal10ObjectKindEEEE19MatchAndExplainImplINSD_11ValuePolicyINS0_9EqMatcherISA_EELb0EEEEEDTcldtclsrT_3Getfp_E15MatchAndExplainfp0_clptfp1_6streamEEERKSD_SC_PNS_19MatchResultListenerE(ptr noundef nonnull readonly align 8 captures(none) dereferenceable(24) %0, ptr noundef nonnull readonly align 8 captures(none) dereferenceable(20) %1, ptr readonly captures(none) %2) #15 align 2 {
  %4 = getelementptr inbounds nuw i8, ptr %0, i64 16
  %.val = load ptr, ptr %4, align 8, !tbaa !22
  %5 = getelementptr inbounds nuw i8, ptr %1, i64 16
  %6 = load i32, ptr %5, align 8, !tbaa !22
  %7 = getelementptr inbounds nuw i8, ptr %.val, i64 24
  %8 = load i32, ptr %7, align 4, !tbaa !22
  %9 = icmp eq i32 %6, %8
  br i1 %9, label %10, label %_ZNK7testing8internal14ComparisonBaseINS0_9EqMatcherISt5tupleIJN12_GLOBAL__N_18FunctionEPKvN4absl13base_internal10ObjectKindEEEEESB_St8equal_toIvEE15MatchAndExplainISB_EEbRKT_PSo.exit

10:                                               ; preds = %3
  %11 = getelementptr inbounds nuw i8, ptr %.val, i64 8
  %.val.i.i.i.i = load i32, ptr %1, align 8
  %12 = getelementptr inbounds nuw i8, ptr %1, i64 8
  %.val4.i.i.i.i = load ptr, ptr %12, align 8, !tbaa !21
  %.val5.i.i.i.i = load i32, ptr %11, align 4
  %13 = getelementptr inbounds nuw i8, ptr %.val, i64 16
  %.val6.i.i.i.i = load ptr, ptr %13, align 8, !tbaa !21
  %14 = icmp eq ptr %.val4.i.i.i.i, %.val6.i.i.i.i
  %15 = icmp eq i32 %.val.i.i.i.i, %.val5.i.i.i.i
  %spec.select.i.i.i.i.i = select i1 %14, i1 %15, i1 false
  br label %_ZNK7testing8internal14ComparisonBaseINS0_9EqMatcherISt5tupleIJN12_GLOBAL__N_18FunctionEPKvN4absl13base_internal10ObjectKindEEEEESB_St8equal_toIvEE15MatchAndExplainISB_EEbRKT_PSo.exit

_ZNK7testing8internal14ComparisonBaseINS0_9EqMatcherISt5tupleIJN12_GLOBAL__N_18FunctionEPKvN4absl13base_internal10ObjectKindEEEEESB_St8equal_toIvEE15MatchAndExplainISB_EEbRKT_PSo.exit: ; preds = %3, %10
  %16 = phi i1 [ false, %3 ], [ %spec.select.i.i.i.i.i, %10 ]
  ret i1 %16
}